; ModuleID = '21/1810.c'
source_filename = "21/1810.c"
target datalayout = "e-m:e-p270:32:32-p271:32:32-p272:64:64-i64:64-f80:128-n8:16:32:64-S128"
target triple = "x86_64-pc-linux-gnu"

@.str = private unnamed_addr constant [3 x i8] c"%d\00", align 1
@.str.1 = private unnamed_addr constant [4 x i8] c",%d\00", align 1

; Function Attrs: noinline nounwind uwtable
define dso_local i32 @main() #0 {
  %1 = alloca i32, align 4
  %2 = alloca i32, align 4
  %3 = alloca i32, align 4
  %4 = alloca [300 x i32], align 16
  %5 = alloca i32, align 4
  %6 = alloca i32, align 4
  store i32 0, i32* %1, align 4
  store i32 0, i32* %5, align 4
  store i32 0, i32* %6, align 4
  %7 = call i32 (i8*, ...) @__isoc99_scanf(i8* getelementptr inbounds ([3 x i8], [3 x i8]* @.str, i64 0, i64 0), i32* %3)
  store i32 0, i32* %2, align 4
  br label %8

8:                                                ; preds = %28, %0
  %9 = load i32, i32* %2, align 4
  %10 = load i32, i32* %3, align 4
  %11 = icmp slt i32 %9, %10
  br i1 %11, label %12, label %31

12:                                               ; preds = %8
  %13 = load i32, i32* %2, align 4
  %14 = sext i32 %13 to i64
  %15 = getelementptr inbounds [300 x i32], [300 x i32]* %4, i64 0, i64 %14
  %16 = call i32 (i8*, ...) @__isoc99_scanf(i8* getelementptr inbounds ([3 x i8], [3 x i8]* @.str, i64 0, i64 0), i32* %15)
  %17 = load i32, i32* %2, align 4
  %18 = sext i32 %17 to i64
  %19 = getelementptr inbounds [300 x i32], [300 x i32]* %4, i64 0, i64 %18
  %20 = load i32, i32* %19, align 4
  %21 = mul nsw i32 %20, 100
  store i32 %21, i32* %19, align 4
  %22 = load i32, i32* %2, align 4
  %23 = sext i32 %22 to i64
  %24 = getelementptr inbounds [300 x i32], [300 x i32]* %4, i64 0, i64 %23
  %25 = load i32, i32* %24, align 4
  %26 = load i32, i32* %5, align 4
  %27 = add nsw i32 %26, %25
  store i32 %27, i32* %5, align 4
  br label %28

28:                                               ; preds = %12
  %29 = load i32, i32* %2, align 4
  %30 = add nsw i32 %29, 1
  store i32 %30, i32* %2, align 4
  br label %8

31:                                               ; preds = %8
  %32 = load i32, i32* %3, align 4
  %33 = load i32, i32* %5, align 4
  %34 = sdiv i32 %33, %32
  store i32 %34, i32* %5, align 4
  store i32 0, i32* %2, align 4
  br label %35

35:                                               ; preds = %88, %31
  %36 = load i32, i32* %2, align 4
  %37 = load i32, i32* %3, align 4
  %38 = icmp slt i32 %36, %37
  br i1 %38, label %39, label %91

39:                                               ; preds = %35
  %40 = load i32, i32* %6, align 4
  %41 = load i32, i32* %2, align 4
  %42 = sext i32 %41 to i64
  %43 = getelementptr inbounds [300 x i32], [300 x i32]* %4, i64 0, i64 %42
  %44 = load i32, i32* %43, align 4
  %45 = load i32, i32* %5, align 4
  %46 = icmp sgt i32 %44, %45
  br i1 %46, label %47, label %54

47:                                               ; preds = %39
  %48 = load i32, i32* %2, align 4
  %49 = sext i32 %48 to i64
  %50 = getelementptr inbounds [300 x i32], [300 x i32]* %4, i64 0, i64 %49
  %51 = load i32, i32* %50, align 4
  %52 = load i32, i32* %5, align 4
  %53 = sub nsw i32 %51, %52
  br label %61

54:                                               ; preds = %39
  %55 = load i32, i32* %5, align 4
  %56 = load i32, i32* %2, align 4
  %57 = sext i32 %56 to i64
  %58 = getelementptr inbounds [300 x i32], [300 x i32]* %4, i64 0, i64 %57
  %59 = load i32, i32* %58, align 4
  %60 = sub nsw i32 %55, %59
  br label %61

61:                                               ; preds = %54, %47
  %62 = phi i32 [ %53, %47 ], [ %60, %54 ]
  %63 = icmp slt i32 %40, %62
  br i1 %63, label %64, label %87

64:                                               ; preds = %61
  %65 = load i32, i32* %2, align 4
  %66 = sext i32 %65 to i64
  %67 = getelementptr inbounds [300 x i32], [300 x i32]* %4, i64 0, i64 %66
  %68 = load i32, i32* %67, align 4
  %69 = load i32, i32* %5, align 4
  %70 = icmp sgt i32 %68, %69
  br i1 %70, label %71, label %78

71:                                               ; preds = %64
  %72 = load i32, i32* %2, align 4
  %73 = sext i32 %72 to i64
  %74 = getelementptr inbounds [300 x i32], [300 x i32]* %4, i64 0, i64 %73
  %75 = load i32, i32* %74, align 4
  %76 = load i32, i32* %5, align 4
  %77 = sub nsw i32 %75, %76
  br label %85

78:                                               ; preds = %64
  %79 = load i32, i32* %5, align 4
  %80 = load i32, i32* %2, align 4
  %81 = sext i32 %80 to i64
  %82 = getelementptr inbounds [300 x i32], [300 x i32]* %4, i64 0, i64 %81
  %83 = load i32, i32* %82, align 4
  %84 = sub nsw i32 %79, %83
  br label %85

85:                                               ; preds = %78, %71
  %86 = phi i32 [ %77, %71 ], [ %84, %78 ]
  store i32 %86, i32* %6, align 4
  br label %87

87:                                               ; preds = %85, %61
  br label %88

88:                                               ; preds = %87
  %89 = load i32, i32* %2, align 4
  %90 = add nsw i32 %89, 1
  store i32 %90, i32* %2, align 4
  br label %35

91:                                               ; preds = %35
  store i32 0, i32* %2, align 4
  br label %92

92:                                               ; preds = %129, %91
  %93 = load i32, i32* %2, align 4
  %94 = load i32, i32* %3, align 4
  %95 = icmp slt i32 %93, %94
  br i1 %95, label %96, label %132

96:                                               ; preds = %92
  %97 = load i32, i32* %2, align 4
  %98 = sext i32 %97 to i64
  %99 = getelementptr inbounds [300 x i32], [300 x i32]* %4, i64 0, i64 %98
  %100 = load i32, i32* %99, align 4
  %101 = load i32, i32* %5, align 4
  %102 = icmp sgt i32 %100, %101
  br i1 %102, label %103, label %110

103:                                              ; preds = %96
  %104 = load i32, i32* %2, align 4
  %105 = sext i32 %104 to i64
  %106 = getelementptr inbounds [300 x i32], [300 x i32]* %4, i64 0, i64 %105
  %107 = load i32, i32* %106, align 4
  %108 = load i32, i32* %5, align 4
  %109 = sub nsw i32 %107, %108
  br label %117

110:                                              ; preds = %96
  %111 = load i32, i32* %5, align 4
  %112 = load i32, i32* %2, align 4
  %113 = sext i32 %112 to i64
  %114 = getelementptr inbounds [300 x i32], [300 x i32]* %4, i64 0, i64 %113
  %115 = load i32, i32* %114, align 4
  %116 = sub nsw i32 %111, %115
  br label %117

117:                                              ; preds = %110, %103
  %118 = phi i32 [ %109, %103 ], [ %116, %110 ]
  %119 = load i32, i32* %6, align 4
  %120 = icmp eq i32 %118, %119
  br i1 %120, label %121, label %128

121:                                              ; preds = %117
  %122 = load i32, i32* %2, align 4
  %123 = sext i32 %122 to i64
  %124 = getelementptr inbounds [300 x i32], [300 x i32]* %4, i64 0, i64 %123
  %125 = load i32, i32* %124, align 4
  %126 = sdiv i32 %125, 100
  %127 = call i32 (i8*, ...) @printf(i8* getelementptr inbounds ([3 x i8], [3 x i8]* @.str, i64 0, i64 0), i32 %126)
  br label %132

128:                                              ; preds = %117
  br label %129

129:                                              ; preds = %128
  %130 = load i32, i32* %2, align 4
  %131 = add nsw i32 %130, 1
  store i32 %131, i32* %2, align 4
  br label %92

132:                                              ; preds = %121, %92
  %133 = load i32, i32* %2, align 4
  %134 = add nsw i32 %133, 1
  store i32 %134, i32* %2, align 4
  br label %135

135:                                              ; preds = %172, %132
  %136 = load i32, i32* %2, align 4
  %137 = load i32, i32* %3, align 4
  %138 = icmp slt i32 %136, %137
  br i1 %138, label %139, label %175

139:                                              ; preds = %135
  %140 = load i32, i32* %2, align 4
  %141 = sext i32 %140 to i64
  %142 = getelementptr inbounds [300 x i32], [300 x i32]* %4, i64 0, i64 %141
  %143 = load i32, i32* %142, align 4
  %144 = load i32, i32* %5, align 4
  %145 = icmp sgt i32 %143, %144
  br i1 %145, label %146, label %153

146:                                              ; preds = %139
  %147 = load i32, i32* %2, align 4
  %148 = sext i32 %147 to i64
  %149 = getelementptr inbounds [300 x i32], [300 x i32]* %4, i64 0, i64 %148
  %150 = load i32, i32* %149, align 4
  %151 = load i32, i32* %5, align 4
  %152 = sub nsw i32 %150, %151
  br label %160

153:                                              ; preds = %139
  %154 = load i32, i32* %5, align 4
  %155 = load i32, i32* %2, align 4
  %156 = sext i32 %155 to i64
  %157 = getelementptr inbounds [300 x i32], [300 x i32]* %4, i64 0, i64 %156
  %158 = load i32, i32* %157, align 4
  %159 = sub nsw i32 %154, %158
  br label %160

160:                                              ; preds = %153, %146
  %161 = phi i32 [ %152, %146 ], [ %159, %153 ]
  %162 = load i32, i32* %6, align 4
  %163 = icmp eq i32 %161, %162
  br i1 %163, label %164, label %171

164:                                              ; preds = %160
  %165 = load i32, i32* %2, align 4
  %166 = sext i32 %165 to i64
  %167 = getelementptr inbounds [300 x i32], [300 x i32]* %4, i64 0, i64 %166
  %168 = load i32, i32* %167, align 4
  %169 = sdiv i32 %168, 100
  %170 = call i32 (i8*, ...) @printf(i8* getelementptr inbounds ([4 x i8], [4 x i8]* @.str.1, i64 0, i64 0), i32 %169)
  br label %171

171:                                              ; preds = %164, %160
  br label %172

172:                                              ; preds = %171
  %173 = load i32, i32* %2, align 4
  %174 = add nsw i32 %173, 1
  store i32 %174, i32* %2, align 4
  br label %135

175:                                              ; preds = %135
  ret i32 0
}

declare dso_local i32 @__isoc99_scanf(i8*, ...) #1

declare dso_local i32 @printf(i8*, ...) #1


!llvm.module.flags = !{!0}
!llvm.ident = !{!1}

!0 = !{i32 1, !"wchar_size", i32 4}
!1 = !{!"clang version 10.0.0-4ubuntu1 "}
